; Function Attrs: nounwind uwtable
define internal range(i32 -5, 1) i32 @send_media_packet_request(ptr noundef initializes((24, 32), (36, 40), (44, 56), (60, 96)) %0) #0 {
  %2 = getelementptr inbounds nuw i8, ptr %0, i64 24
  %3 = getelementptr inbounds nuw i8, ptr %0, i64 16
  store i32 1, ptr %2, align 1, !tbaa !36
  %4 = getelementptr inbounds nuw i8, ptr %0, i64 28
  store i32 -1341392178, ptr %4, align 1, !tbaa !36
  %5 = getelementptr inbounds nuw i8, ptr %0, i64 32
  %6 = getelementptr inbounds nuw i8, ptr %0, i64 36
  store i32 542330189, ptr %6, align 1, !tbaa !36
  %7 = getelementptr inbounds nuw i8, ptr %0, i64 40
  %8 = getelementptr inbounds nuw i8, ptr %0, i64 44
  %9 = getelementptr inbounds nuw i8, ptr %0, i64 66120
  %10 = load i32, ptr %9, align 8, !tbaa !37
  %11 = add nsw i32 %10, 1
  store i32 %11, ptr %9, align 8, !tbaa !37
  store i32 %10, ptr %8, align 1, !tbaa !36
  %12 = getelementptr inbounds nuw i8, ptr %0, i64 48
  store i64 0, ptr %12, align 1, !tbaa !36
  %13 = getelementptr inbounds nuw i8, ptr %0, i64 56
  %14 = getelementptr inbounds nuw i8, ptr %0, i64 60
  store i16 7, ptr %14, align 1, !tbaa !36
  %15 = getelementptr inbounds nuw i8, ptr %0, i64 62
  store i16 3, ptr %15, align 1, !tbaa !36
  %16 = getelementptr inbounds nuw i8, ptr %0, i64 64
  store i32 1, ptr %16, align 1, !tbaa !36
  %17 = getelementptr inbounds nuw i8, ptr %0, i64 68
  store i32 131071, ptr %17, align 1, !tbaa !36
  %18 = getelementptr inbounds nuw i8, ptr %0, i64 72
  store i64 0, ptr %18, align 1, !tbaa !36
  %19 = getelementptr inbounds nuw i8, ptr %0, i64 80
  store i32 -1, ptr %19, align 1, !tbaa !36
  %20 = getelementptr inbounds nuw i8, ptr %0, i64 84
  store i32 -1, ptr %20, align 1, !tbaa !36
  %21 = getelementptr inbounds nuw i8, ptr %0, i64 88
  store i8 -1, ptr %21, align 1, !tbaa !36
  %22 = getelementptr inbounds nuw i8, ptr %0, i64 89
  store i8 -1, ptr %22, align 1, !tbaa !36
  %23 = getelementptr inbounds nuw i8, ptr %0, i64 90
  store i8 -1, ptr %23, align 1, !tbaa !36
  %24 = getelementptr inbounds nuw i8, ptr %0, i64 91
  store i8 0, ptr %24, align 1, !tbaa !36
  %25 = getelementptr inbounds nuw i8, ptr %0, i64 92
  %26 = getelementptr inbounds nuw i8, ptr %0, i64 66516
  %27 = load i32, ptr %26, align 4, !tbaa !19
  %28 = add nsw i32 %27, 1
  store i32 %28, ptr %26, align 4, !tbaa !19
  store i32 %28, ptr %25, align 1, !tbaa !36
  %29 = getelementptr inbounds nuw i8, ptr %0, i64 96
  store ptr %29, ptr %3, align 8, !tbaa !38
  store i32 56, ptr %5, align 1, !tbaa !36
  store i32 7, ptr %7, align 1, !tbaa !36
  store i32 5, ptr %13, align 1, !tbaa !36
  %30 = load ptr, ptr %0, align 8, !tbaa !31
  %31 = tail call i32 @ffurl_write2(ptr noundef %30, ptr noundef nonnull %2, i32 noundef range(i32 0, -7) 72) #7
  %.not.i = icmp eq i32 %31, 72
  br i1 %.not.i, label %send_command_packet.exit, label %32

32:                                               ; preds = %1
  %33 = load ptr, ptr %0, align 8, !tbaa !31
  %34 = icmp slt i32 %31, 0
  br i1 %34, label %35, label %38

35:                                               ; preds = %32
  %36 = sub nsw i32 0, %31
  %37 = tail call ptr @strerror(i32 noundef %36) #7
  br label %38

38:                                               ; preds = %35, %32
  %39 = phi ptr [ %37, %35 ], [ @.str.11, %32 ]
  tail call void (ptr, i32, ptr, ...) @av_log(ptr noundef %33, i32 noundef 16, ptr noundef nonnull @.str.19, i32 noundef 72, i32 noundef %31, ptr noundef %39) #7
  br label %send_command_packet.exit

send_command_packet.exit:                         ; preds = %1, %38
  %.0.i = phi i32 [ -5, %38 ], [ 0, %1 ]
  ret i32 %.0.i
}